target datalayout = "e-m:e-p270:32:32-p271:32:32-p272:64:64-i64:64-i128:128-f80:128-n8:16:32:64-S128"
target triple = "x86_64-pc-linux-gnu"

%struct.quic_conn_st = type { %struct.quic_obj_st, ptr, ptr, ptr, ptr, ptr, ptr, ptr, ptr, %union.bio_addr_st, %struct.quic_thread_assist_st, i64, i16, i32, i32, i64, i32, i64, i32 }
%struct.quic_obj_st = type { %struct.ssl_st, ptr, ptr, ptr, ptr, ptr, i64, i8 }
%struct.ssl_st = type { i32, ptr, ptr, ptr, %struct.CRYPTO_REF_COUNT, ptr, %struct.crypto_ex_data_st }
%struct.CRYPTO_REF_COUNT = type { i32 }
%struct.crypto_ex_data_st = type { ptr, ptr }
%union.bio_addr_st = type { %struct.sockaddr_in6, [84 x i8] }
%struct.sockaddr_in6 = type { i16, i16, i32, %struct.in6_addr, i32 }
%struct.in6_addr = type { %union.anon }
%union.anon = type { [4 x i32] }
%struct.quic_thread_assist_st = type { ptr, ptr, ptr, i32, i32 }
%struct.qctx_st = type { ptr, ptr, ptr, ptr, ptr, i32, i32, i32, i32 }

; Function Attrs: nounwind uwtable
define internal i32 @expect_quic_cs(ptr noundef %0, ptr noundef %1) #0 {
  %3 = alloca ptr, align 8
  %4 = alloca ptr, align 8
  store ptr %0, ptr %3, align 8, !tbaa !136
  store ptr %1, ptr %4, align 8, !tbaa !119
  %5 = load ptr, ptr %3, align 8, !tbaa !136
  %6 = load ptr, ptr %4, align 8, !tbaa !119
  %7 = call i32 @expect_quic_as(ptr noundef %5, ptr noundef %6, i32 noundef 3)
  ret i32 %7
}

; Function Attrs: nounwind uwtable
define void @ossl_quic_set_accept_state(ptr noundef %0) #0 {
  %2 = alloca ptr, align 8
  %3 = alloca %struct.qctx_st, align 8
  %4 = alloca i32, align 4
  store ptr %0, ptr %2, align 8, !tbaa !136
  call void @llvm.lifetime.start.p0(i64 56, ptr %3) #10
  %5 = load ptr, ptr %2, align 8, !tbaa !136
  %6 = call i32 @expect_quic_cs(ptr noundef %5, ptr noundef %3)
  %7 = icmp ne i32 %6, 0
  br i1 %7, label %9, label %8

8:                                                ; preds = %1
  store i32 1, ptr %4, align 4
  br label %29

9:                                                ; preds = %1
  %10 = getelementptr inbounds nuw %struct.qctx_st, ptr %3, i32 0, i32 3
  %11 = load ptr, ptr %10, align 8, !tbaa !123
  %12 = getelementptr inbounds nuw %struct.quic_conn_st, ptr %11, i32 0, i32 12
  %13 = load i16, ptr %12, align 8
  %14 = and i16 %13, 1
  %15 = zext i16 %14 to i32
  %16 = icmp ne i32 %15, 0
  br i1 %16, label %21, label %17

17:                                               ; preds = %9
  %18 = getelementptr inbounds nuw %struct.qctx_st, ptr %3, i32 0, i32 5
  %19 = load i32, ptr %18, align 8, !tbaa !139
  %20 = icmp ne i32 %19, 0
  br i1 %20, label %21, label %22

21:                                               ; preds = %17, %9
  store i32 1, ptr %4, align 4
  br label %29

22:                                               ; preds = %17
  %23 = getelementptr inbounds nuw %struct.qctx_st, ptr %3, i32 0, i32 3
  %24 = load ptr, ptr %23, align 8, !tbaa !123
  %25 = getelementptr inbounds nuw %struct.quic_conn_st, ptr %24, i32 0, i32 12
  %26 = load i16, ptr %25, align 8
  %27 = and i16 %26, -5
  %28 = or i16 %27, 4
  store i16 %28, ptr %25, align 8
  store i32 0, ptr %4, align 4
  br label %29

29:                                               ; preds = %22, %21, %8
  call void @llvm.lifetime.end.p0(i64 56, ptr %3) #10
  %30 = load i32, ptr %4, align 4
  switch i32 %30, label %32 [
    i32 0, label %31
    i32 1, label %31
  ]

31:                                               ; preds = %29, %29
  ret void

32:                                               ; preds = %29
  unreachable
}